; Function Attrs: nounwind uwtable
define internal i32 @_camera_start_timeout_func(ptr readnone captures(none) %0, i32 noundef %1, ptr noundef %2, ptr noundef %3) #0 {
  %5 = load i32, ptr getelementptr inbounds nuw (i8, ptr @darktable, i64 8), align 8, !tbaa !19
  %6 = and i32 %5, 32
  %.not = icmp eq i32 %6, 0
  br i1 %.not, label %8, label %7

7:                                                ; preds = %4
  tail call void (ptr, ...) @dt_print_ext(ptr noundef nonnull @.str.74, i32 noundef %1, ptr noundef %3) #15
  br label %8

8:                                                ; preds = %4, %7
  %9 = getelementptr inbounds nuw i8, ptr %3, i64 32792
  store ptr %2, ptr %9, align 8, !tbaa !207
  %10 = tail call i32 @g_timeout_add_seconds(i32 noundef %1, ptr noundef nonnull @_camera_timeout_job, ptr noundef %3) #15
  ret i32 %10
}